target datalayout = "e-m:e-p270:32:32-p271:32:32-p272:64:64-i64:64-i128:128-f80:128-n8:16:32:64-S128"
target triple = "x86_64-unknown-linux-gnu"

@.str.314 = private unnamed_addr constant [6 x i8] c"%.*s\0A\00", align 1

; Function Attrs: nounwind sspstrong uwtable
define internal void @riscv_cpu_list_entry(ptr noundef %data, ptr noundef %user_data) #0 {
entry:
  %data.addr = alloca ptr, align 8
  %user_data.addr = alloca ptr, align 8
  %typename = alloca ptr, align 8
  %len = alloca i32, align 4
  store ptr %data, ptr %data.addr, align 8
  store ptr %user_data, ptr %user_data.addr, align 8
  %0 = load ptr, ptr %data.addr, align 8
  %call = call ptr @object_class_get_name(ptr noundef %0)
  store ptr %call, ptr %typename, align 8
  %1 = load ptr, ptr %typename, align 8
  %call1 = call i64 @strlen(ptr noundef %1) #9
  %sub = sub i64 %call1, 10
  %conv = trunc i64 %sub to i32
  store i32 %conv, ptr %len, align 4
  %2 = load i32, ptr %len, align 4
  %3 = load ptr, ptr %typename, align 8
  %call2 = call i32 (ptr, ...) @qemu_printf(ptr noundef @.str.314, i32 noundef %2, ptr noundef %3)
  ret void
}