; Function Attrs: nounwind sspstrong uwtable
define internal void @riscv_cpu_list_entry(ptr noundef %data, ptr readnone captures(none) %user_data) #3 {
entry:
  %call = tail call ptr @object_class_get_name(ptr noundef %data) #14
  %call1 = tail call i64 @strlen(ptr noundef nonnull dereferenceable(1) %call) #16
  %0 = trunc i64 %call1 to i32
  %conv = add i32 %0, -10
  %call2 = tail call i32 (ptr, ...) @qemu_printf(ptr noundef nonnull @.str.314, i32 noundef %conv, ptr noundef nonnull %call) #14
  ret void
}